; Function Attrs: nounwind uwtable
define range(i32 -1, 1) i32 @H5S_extent_copy(ptr noundef %0, ptr noundef %1) local_unnamed_addr #0 {
  %3 = load i8, ptr @H5S_init_g, align 1, !tbaa !3, !range !7, !noundef !8
  %4 = trunc nuw i8 %3 to i1
  %5 = load i8, ptr @H5_libterm_g, align 1, !range !7
  %6 = trunc nuw i8 %5 to i1
  %7 = select i1 %4, i1 true, i1 %6
  br i1 %7, label %15, label %8, !prof !9

8:                                                ; preds = %2
  store i8 1, ptr @H5S_init_g, align 1, !tbaa !3
  %9 = tail call i32 @H5S__init_package()
  %10 = icmp slt i32 %9, 0
  br i1 %10, label %11, label %._crit_edge

._crit_edge:                                      ; preds = %8
  %.pre = load i8, ptr @H5S_init_g, align 1, !tbaa !3, !range !7
  %.pre7 = load i8, ptr @H5_libterm_g, align 1, !range !7
  %.pre8 = trunc nuw i8 %.pre to i1
  %.pre9 = trunc nuw i8 %.pre7 to i1
  br label %15

11:                                               ; preds = %8
  store i8 0, ptr @H5S_init_g, align 1, !tbaa !3
  %12 = load i64, ptr @H5E_FUNC_g, align 8, !tbaa !10
  %13 = load i64, ptr @H5E_CANTINIT_g, align 8, !tbaa !10
  %14 = tail call i32 (ptr, ptr, i32, i64, i64, ptr, ...) @H5E_printf_stack(ptr noundef nonnull @.str.3, ptr noundef nonnull @__func__.H5S_extent_copy, i32 noundef 578, i64 noundef %12, i64 noundef %13, ptr noundef nonnull @.str.4) #10
  br label %37

15:                                               ; preds = %._crit_edge, %2
  %.pre-phi10 = phi i1 [ %.pre9, %._crit_edge ], [ %6, %2 ]
  %.pre-phi = phi i1 [ %.pre8, %._crit_edge ], [ %4, %2 ]
  %16 = xor i1 %.pre-phi10, true
  %17 = select i1 %.pre-phi, i1 true, i1 %16
  br i1 %17, label %18, label %37, !prof !9

18:                                               ; preds = %15
  %19 = tail call i32 @H5S__extent_copy_real(ptr noundef %0, ptr noundef %1, i1 noundef zeroext true)
  %20 = icmp slt i32 %19, 0
  br i1 %20, label %21, label %25

21:                                               ; preds = %18
  %22 = load i64, ptr @H5E_DATASPACE_g, align 8, !tbaa !10
  %23 = load i64, ptr @H5E_CANTCOPY_g, align 8, !tbaa !10
  %24 = tail call i32 (ptr, ptr, i32, i64, i64, ptr, ...) @H5E_printf_stack(ptr noundef nonnull @.str.3, ptr noundef nonnull @__func__.H5S_extent_copy, i32 noundef 585, i64 noundef %22, i64 noundef %23, ptr noundef nonnull @.str.21) #10
  br label %37

25:                                               ; preds = %18
  %26 = getelementptr inbounds nuw i8, ptr %0, i64 80
  %27 = load ptr, ptr %26, align 8, !tbaa !35
  %28 = load i32, ptr %27, align 8, !tbaa !36
  %29 = icmp eq i32 %28, 3
  br i1 %29, label %30, label %37

30:                                               ; preds = %25
  %31 = tail call i32 @H5S_select_all(ptr noundef nonnull %0, i1 noundef zeroext false) #10
  %32 = icmp slt i32 %31, 0
  br i1 %32, label %33, label %37

33:                                               ; preds = %30
  %34 = load i64, ptr @H5E_DATASPACE_g, align 8, !tbaa !10
  %35 = load i64, ptr @H5E_CANTDELETE_g, align 8, !tbaa !10
  %36 = tail call i32 (ptr, ptr, i32, i64, i64, ptr, ...) @H5E_printf_stack(ptr noundef nonnull @.str.3, ptr noundef nonnull @__func__.H5S_extent_copy, i32 noundef 591, i64 noundef %34, i64 noundef %35, ptr noundef nonnull @.str.22) #10
  br label %37

37:                                               ; preds = %11, %21, %33, %30, %25, %15
  %.0 = phi i32 [ -1, %11 ], [ -1, %21 ], [ -1, %33 ], [ 0, %30 ], [ 0, %25 ], [ 0, %15 ]
  ret i32 %.0
}